target datalayout = "e-m:e-p270:32:32-p271:32:32-p272:64:64-i64:64-i128:128-f80:128-n8:16:32:64-S128"
target triple = "x86_64-pc-linux-gnu"

%struct._zval_struct = type { %union._zend_value, %union.anon.3, %union.anon.6 }
%union._zend_value = type { i64 }
%union.anon.3 = type { i32 }
%union.anon.6 = type { i32 }
%struct._zend_refcounted_h = type { i32, %union.anon.1 }
%union.anon.1 = type { i32 }
%struct._zend_fcall_info_cache = type { ptr, ptr, ptr, ptr, ptr }
%struct._zend_object = type { %struct._zend_refcounted_h, i32, i32, ptr, ptr, ptr, [1 x %struct._zval_struct] }
%struct.anon.4 = type { i8, i8, %union.anon.5 }
%union.anon.5 = type { i16 }
%struct._zend_fcall_info = type { i64, %struct._zval_struct, ptr, ptr, ptr, i32, ptr }

; Function Attrs: alwaysinline nounwind uwtable
define internal zeroext i8 @zval_get_type(ptr noundef %0) #3 {
  %2 = alloca ptr, align 8
  store ptr %0, ptr %2, align 8, !tbaa !47
  %3 = load ptr, ptr %2, align 8, !tbaa !47
  %4 = getelementptr inbounds nuw %struct._zval_struct, ptr %3, i32 0, i32 1
  %5 = getelementptr inbounds nuw %struct.anon.4, ptr %4, i32 0, i32 0
  %6 = load i8, ptr %5, align 8, !tbaa !45
  ret i8 %6
}

; Function Attrs: nounwind uwtable
define internal zeroext i1 @pdo_call_fetch_object_constructor(ptr noundef %0, ptr noundef %1, ptr noundef %2) #0 {
  %4 = alloca ptr, align 8
  %5 = alloca ptr, align 8
  %6 = alloca ptr, align 8
  %7 = alloca %struct._zval_struct, align 8
  %8 = alloca %struct._zend_fcall_info, align 8
  %9 = alloca %struct._zend_fcall_info_cache, align 8
  %10 = alloca i8, align 1
  store ptr %0, ptr %4, align 8, !tbaa !193
  store ptr %1, ptr %5, align 8, !tbaa !46
  store ptr %2, ptr %6, align 8, !tbaa !47
  call void @llvm.lifetime.start.p0(i64 16, ptr %7) #14
  call void @llvm.lifetime.start.p0(i64 64, ptr %8) #14
  call void @llvm.memset.p0.i64(ptr align 8 %8, i8 0, i64 64, i1 false)
  %11 = getelementptr inbounds nuw %struct._zend_fcall_info, ptr %8, i32 0, i32 0
  store i64 64, ptr %11, align 8, !tbaa !204
  %12 = load ptr, ptr %6, align 8, !tbaa !47
  %13 = getelementptr inbounds nuw %struct._zval_struct, ptr %12, i32 0, i32 0
  %14 = load ptr, ptr %13, align 8, !tbaa !45
  %15 = getelementptr inbounds nuw %struct._zend_fcall_info, ptr %8, i32 0, i32 4
  store ptr %14, ptr %15, align 8, !tbaa !206
  %16 = getelementptr inbounds nuw %struct._zend_fcall_info, ptr %8, i32 0, i32 2
  store ptr %7, ptr %16, align 8, !tbaa !207
  %17 = load ptr, ptr %5, align 8, !tbaa !46
  %18 = getelementptr inbounds nuw %struct._zend_fcall_info, ptr %8, i32 0, i32 6
  store ptr %17, ptr %18, align 8, !tbaa !208
  call void @llvm.lifetime.start.p0(i64 40, ptr %9) #14
  %19 = getelementptr inbounds nuw %struct._zend_fcall_info_cache, ptr %9, i32 0, i32 0
  %20 = load ptr, ptr %4, align 8, !tbaa !193
  store ptr %20, ptr %19, align 8, !tbaa !209
  %21 = getelementptr inbounds nuw %struct._zend_fcall_info_cache, ptr %9, i32 0, i32 1
  store ptr null, ptr %21, align 8, !tbaa !211
  %22 = getelementptr inbounds nuw %struct._zend_fcall_info_cache, ptr %9, i32 0, i32 2
  %23 = load ptr, ptr %6, align 8, !tbaa !47
  %24 = getelementptr inbounds nuw %struct._zval_struct, ptr %23, i32 0, i32 0
  %25 = load ptr, ptr %24, align 8, !tbaa !45
  %26 = getelementptr inbounds nuw %struct._zend_object, ptr %25, i32 0, i32 3
  %27 = load ptr, ptr %26, align 8, !tbaa !56
  store ptr %27, ptr %22, align 8, !tbaa !212
  %28 = getelementptr inbounds nuw %struct._zend_fcall_info_cache, ptr %9, i32 0, i32 3
  %29 = load ptr, ptr %6, align 8, !tbaa !47
  %30 = getelementptr inbounds nuw %struct._zval_struct, ptr %29, i32 0, i32 0
  %31 = load ptr, ptr %30, align 8, !tbaa !45
  store ptr %31, ptr %28, align 8, !tbaa !213
  %32 = getelementptr inbounds nuw %struct._zend_fcall_info_cache, ptr %9, i32 0, i32 4
  store ptr null, ptr %32, align 8, !tbaa !214
  %33 = call i32 @zend_call_function(ptr noundef %8, ptr noundef %9)
  call void @llvm.lifetime.start.p0(i64 1, ptr %10) #14
  %34 = call zeroext i8 @zval_get_type(ptr noundef %7)
  %35 = zext i8 %34 to i32
  %36 = icmp eq i32 %35, 0
  %37 = zext i1 %36 to i8
  store i8 %37, ptr %10, align 1, !tbaa !53
  call void @zval_ptr_dtor(ptr noundef %7)
  %38 = load i8, ptr %10, align 1, !tbaa !53, !range !54, !noundef !55
  %39 = trunc i8 %38 to i1
  call void @llvm.lifetime.end.p0(i64 1, ptr %10) #14
  call void @llvm.lifetime.end.p0(i64 40, ptr %9) #14
  call void @llvm.lifetime.end.p0(i64 64, ptr %8) #14
  call void @llvm.lifetime.end.p0(i64 16, ptr %7) #14
  ret i1 %39
}