; Function Attrs: nounwind uwtable
define internal fastcc zeroext i1 @pdo_call_fetch_object_constructor(ptr noundef nonnull %0, ptr noundef %1, ptr %.0.val) unnamed_addr #0 {
  %3 = alloca %struct._zval_struct, align 8
  %4 = alloca %struct._zend_fcall_info, align 8
  %5 = alloca %struct._zend_fcall_info_cache, align 8
  call void @llvm.lifetime.start.p0(i64 16, ptr nonnull %3) #17
  call void @llvm.lifetime.start.p0(i64 64, ptr nonnull %4) #17
  %6 = getelementptr inbounds nuw i8, ptr %4, i64 8
  call void @llvm.memset.p0.i64(ptr noundef nonnull align 8 dereferenceable(64) %6, i8 0, i64 48, i1 false)
  store i64 64, ptr %4, align 8, !tbaa !190
  %7 = getelementptr inbounds nuw i8, ptr %4, i64 40
  store ptr %.0.val, ptr %7, align 8, !tbaa !192
  %8 = getelementptr inbounds nuw i8, ptr %4, i64 24
  store ptr %3, ptr %8, align 8, !tbaa !193
  %9 = getelementptr inbounds nuw i8, ptr %4, i64 56
  store ptr %1, ptr %9, align 8, !tbaa !194
  call void @llvm.lifetime.start.p0(i64 40, ptr nonnull %5) #17
  store ptr %0, ptr %5, align 8, !tbaa !116
  %10 = getelementptr inbounds nuw i8, ptr %5, i64 8
  store ptr null, ptr %10, align 8, !tbaa !195
  %11 = getelementptr inbounds nuw i8, ptr %5, i64 16
  %12 = getelementptr inbounds nuw i8, ptr %.0.val, i64 16
  %13 = load ptr, ptr %12, align 8, !tbaa !45
  store ptr %13, ptr %11, align 8, !tbaa !119
  %14 = getelementptr inbounds nuw i8, ptr %5, i64 24
  store ptr %.0.val, ptr %14, align 8, !tbaa !118
  %15 = getelementptr inbounds nuw i8, ptr %5, i64 32
  store ptr null, ptr %15, align 8, !tbaa !196
  %16 = call i32 @zend_call_function(ptr noundef nonnull %4, ptr noundef nonnull %5) #17
  %17 = getelementptr inbounds nuw i8, ptr %3, i64 8
  %18 = load i8, ptr %17, align 8, !tbaa !37
  %19 = icmp eq i8 %18, 0
  call void @zval_ptr_dtor(ptr noundef nonnull %3) #17
  call void @llvm.lifetime.end.p0(i64 40, ptr nonnull %5) #17
  call void @llvm.lifetime.end.p0(i64 64, ptr nonnull %4) #17
  call void @llvm.lifetime.end.p0(i64 16, ptr nonnull %3) #17
  ret i1 %19
}